target datalayout = "e-m:e-p270:32:32-p271:32:32-p272:64:64-i64:64-i128:128-f80:128-n8:16:32:64-S128"
target triple = "x86_64-pc-linux-gnu"

%struct.pbl_node_t = type { i32, ptr, ptr, ptr, ptr, ptr, ptr, i32 }

; Function Attrs: null_pointer_is_valid sspstrong uwtable
define hidden ptr @pbl_enum_descriptor_FindValueByName(ptr noundef %0, ptr noundef %1) #0 {
  %3 = alloca ptr, align 8
  %4 = alloca ptr, align 8
  %5 = alloca ptr, align 8
  store ptr %0, ptr %4, align 8
  store ptr %1, ptr %5, align 8
  %6 = load ptr, ptr %4, align 8
  %7 = icmp ne ptr %6, null
  br i1 %7, label %8, label %19

8:                                                ; preds = %2
  %9 = load ptr, ptr %4, align 8
  %10 = getelementptr inbounds nuw %struct.pbl_node_t, ptr %9, i32 0, i32 5
  %11 = load ptr, ptr %10, align 8
  %12 = icmp ne ptr %11, null
  br i1 %12, label %13, label %19

13:                                               ; preds = %8
  %14 = load ptr, ptr %4, align 8
  %15 = getelementptr inbounds nuw %struct.pbl_node_t, ptr %14, i32 0, i32 5
  %16 = load ptr, ptr %15, align 8
  %17 = load ptr, ptr %5, align 8
  %18 = call ptr @g_hash_table_lookup(ptr noundef %16, ptr noundef %17)
  store ptr %18, ptr %3, align 8
  br label %20

19:                                               ; preds = %8, %2
  store ptr null, ptr %3, align 8
  br label %20

20:                                               ; preds = %19, %13
  %21 = load ptr, ptr %3, align 8
  ret ptr %21
}